target datalayout = "e-m:e-p270:32:32-p271:32:32-p272:64:64-i64:64-i128:128-f80:128-n8:16:32:64-S128"
target triple = "x86_64-pc-linux-gnu"

%"class.net::QuicTime" = type { i64 }
%"class.net::QuicData" = type <{ ptr, ptr, i64, i8, [7 x i8] }>
%"class.net::QuicData.base" = type <{ ptr, ptr, i64, i8 }>
%"class.net::QuicReceivedPacket" = type <{ %"class.net::QuicEncryptedPacket.base", [7 x i8], %"class.net::QuicTime", i32, i8, [3 x i8] }>
%"class.net::QuicEncryptedPacket.base" = type { %"class.net::QuicData.base" }

@_ZTVN3net8QuicDataE = unnamed_addr constant { [4 x ptr] } { [4 x ptr] [ptr null, ptr @_ZTIN3net8QuicDataE, ptr @_ZN3net8QuicDataD1Ev, ptr @_ZN3net8QuicDataD0Ev] }, align 8
@_ZTVN3net19QuicEncryptedPacketE = linkonce_odr unnamed_addr constant { [4 x ptr] } { [4 x ptr] [ptr null, ptr @_ZTIN3net19QuicEncryptedPacketE, ptr @_ZN3net8QuicDataD2Ev, ptr @_ZN3net19QuicEncryptedPacketD0Ev] }, comdat, align 8
@_ZTVN3net18QuicReceivedPacketE = linkonce_odr unnamed_addr constant { [4 x ptr] } { [4 x ptr] [ptr null, ptr @_ZTIN3net18QuicReceivedPacketE, ptr @_ZN3net8QuicDataD2Ev, ptr @_ZN3net18QuicReceivedPacketD0Ev] }, comdat, align 8

; Function Attrs: mustprogress nounwind uwtable
define void @_ZN3net8QuicDataC2EPKcmb(ptr noundef nonnull align 8 dereferenceable(25) %0, ptr noundef %1, i64 noundef %2, i1 noundef zeroext %3) unnamed_addr #1 align 2 {
  %5 = alloca ptr, align 8
  %6 = alloca ptr, align 8
  %7 = alloca i64, align 8
  %8 = alloca i8, align 1
  store ptr %0, ptr %5, align 8, !tbaa !257
  store ptr %1, ptr %6, align 8, !tbaa !66
  store i64 %2, ptr %7, align 8, !tbaa !71
  %9 = zext i1 %3 to i8
  store i8 %9, ptr %8, align 1, !tbaa !29
  %10 = load ptr, ptr %5, align 8
  store ptr getelementptr inbounds inrange(-16, 16) ({ [4 x ptr] }, ptr @_ZTVN3net8QuicDataE, i32 0, i32 0, i32 2), ptr %10, align 8, !tbaa !69
  %11 = getelementptr inbounds nuw %"class.net::QuicData", ptr %10, i32 0, i32 1
  %12 = load ptr, ptr %6, align 8, !tbaa !66
  store ptr %12, ptr %11, align 8, !tbaa !259
  %13 = getelementptr inbounds nuw %"class.net::QuicData", ptr %10, i32 0, i32 2
  %14 = load i64, ptr %7, align 8, !tbaa !71
  store i64 %14, ptr %13, align 8, !tbaa !261
  %15 = getelementptr inbounds nuw %"class.net::QuicData", ptr %10, i32 0, i32 3
  %16 = load i8, ptr %8, align 1, !tbaa !29, !range !23, !noundef !24
  %17 = trunc i8 %16 to i1
  %18 = zext i1 %17 to i8
  store i8 %18, ptr %15, align 8, !tbaa !262
  ret void
}

; Function Attrs: mustprogress nounwind uwtable
define void @_ZN3net19QuicEncryptedPacketC2EPKcmb(ptr noundef nonnull align 8 dereferenceable(25) %0, ptr noundef %1, i64 noundef %2, i1 noundef zeroext %3) unnamed_addr #1 align 2 {
  %5 = alloca ptr, align 8
  %6 = alloca ptr, align 8
  %7 = alloca i64, align 8
  %8 = alloca i8, align 1
  store ptr %0, ptr %5, align 8, !tbaa !272
  store ptr %1, ptr %6, align 8, !tbaa !66
  store i64 %2, ptr %7, align 8, !tbaa !71
  %9 = zext i1 %3 to i8
  store i8 %9, ptr %8, align 1, !tbaa !29
  %10 = load ptr, ptr %5, align 8
  %11 = load ptr, ptr %6, align 8, !tbaa !66
  %12 = load i64, ptr %7, align 8, !tbaa !71
  %13 = load i8, ptr %8, align 1, !tbaa !29, !range !23, !noundef !24
  %14 = trunc i8 %13 to i1
  call void @_ZN3net8QuicDataC2EPKcmb(ptr noundef nonnull align 8 dereferenceable(25) %10, ptr noundef %11, i64 noundef %12, i1 noundef zeroext %14)
  store ptr getelementptr inbounds inrange(-16, 16) ({ [4 x ptr] }, ptr @_ZTVN3net19QuicEncryptedPacketE, i32 0, i32 0, i32 2), ptr %10, align 8, !tbaa !69
  ret void
}

; Function Attrs: mustprogress nounwind uwtable
define void @_ZN3net18QuicReceivedPacketC2EPKcmNS_8QuicTimeEbbib(ptr noundef nonnull align 8 dereferenceable(45) %0, ptr noundef %1, i64 noundef %2, i64 %3, i1 noundef zeroext %4, i1 noundef zeroext %5, i32 noundef %6, i1 noundef zeroext %7) unnamed_addr #1 align 2 {
  %9 = alloca %"class.net::QuicTime", align 8
  %10 = alloca ptr, align 8
  %11 = alloca ptr, align 8
  %12 = alloca i64, align 8
  %13 = alloca i8, align 1
  %14 = alloca i8, align 1
  %15 = alloca i32, align 4
  %16 = alloca i8, align 1
  %17 = getelementptr inbounds nuw %"class.net::QuicTime", ptr %9, i32 0, i32 0
  store i64 %3, ptr %17, align 8
  store ptr %0, ptr %10, align 8, !tbaa !274
  store ptr %1, ptr %11, align 8, !tbaa !66
  store i64 %2, ptr %12, align 8, !tbaa !71
  %18 = zext i1 %4 to i8
  store i8 %18, ptr %13, align 1, !tbaa !29
  %19 = zext i1 %5 to i8
  store i8 %19, ptr %14, align 1, !tbaa !29
  store i32 %6, ptr %15, align 4, !tbaa !78
  %20 = zext i1 %7 to i8
  store i8 %20, ptr %16, align 1, !tbaa !29
  %21 = load ptr, ptr %10, align 8
  %22 = load ptr, ptr %11, align 8, !tbaa !66
  %23 = load i64, ptr %12, align 8, !tbaa !71
  %24 = load i8, ptr %13, align 1, !tbaa !29, !range !23, !noundef !24
  %25 = trunc i8 %24 to i1
  call void @_ZN3net19QuicEncryptedPacketC2EPKcmb(ptr noundef nonnull align 8 dereferenceable(25) %21, ptr noundef %22, i64 noundef %23, i1 noundef zeroext %25)
  store ptr getelementptr inbounds inrange(-16, 16) ({ [4 x ptr] }, ptr @_ZTVN3net18QuicReceivedPacketE, i32 0, i32 0, i32 2), ptr %21, align 8, !tbaa !69
  %26 = getelementptr inbounds nuw %"class.net::QuicReceivedPacket", ptr %21, i32 0, i32 2
  call void @llvm.memcpy.p0.p0.i64(ptr align 8 %26, ptr align 8 %9, i64 8, i1 false), !tbaa.struct !276
  %27 = getelementptr inbounds nuw %"class.net::QuicReceivedPacket", ptr %21, i32 0, i32 3
  %28 = load i8, ptr %16, align 1, !tbaa !29, !range !23, !noundef !24
  %29 = trunc i8 %28 to i1
  br i1 %29, label %30, label %32

30:                                               ; preds = %8
  %31 = load i32, ptr %15, align 4, !tbaa !78
  br label %33

32:                                               ; preds = %8
  br label %33

33:                                               ; preds = %32, %30
  %34 = phi i32 [ %31, %30 ], [ -1, %32 ]
  store i32 %34, ptr %27, align 8, !tbaa !277
  %35 = getelementptr inbounds nuw %"class.net::QuicReceivedPacket", ptr %21, i32 0, i32 4
  %36 = load i8, ptr %14, align 1, !tbaa !29, !range !23, !noundef !24
  %37 = trunc i8 %36 to i1
  %38 = zext i1 %37 to i8
  store i8 %38, ptr %35, align 4, !tbaa !280
  ret void
}

; Function Attrs: mustprogress uwtable
define void @_ZN3net18QuicReceivedPacketC2EPKcmNS_8QuicTimeEb(ptr noundef nonnull align 8 dereferenceable(45) %0, ptr noundef %1, i64 noundef %2, i64 %3, i1 noundef zeroext %4) unnamed_addr #0 align 2 {
  %6 = alloca %"class.net::QuicTime", align 8
  %7 = alloca ptr, align 8
  %8 = alloca ptr, align 8
  %9 = alloca i64, align 8
  %10 = alloca i8, align 1
  %11 = alloca %"class.net::QuicTime", align 8
  %12 = getelementptr inbounds nuw %"class.net::QuicTime", ptr %6, i32 0, i32 0
  store i64 %3, ptr %12, align 8
  store ptr %0, ptr %7, align 8, !tbaa !274
  store ptr %1, ptr %8, align 8, !tbaa !66
  store i64 %2, ptr %9, align 8, !tbaa !71
  %13 = zext i1 %4 to i8
  store i8 %13, ptr %10, align 1, !tbaa !29
  %14 = load ptr, ptr %7, align 8
  %15 = load ptr, ptr %8, align 8, !tbaa !66
  %16 = load i64, ptr %9, align 8, !tbaa !71
  call void @llvm.memcpy.p0.p0.i64(ptr align 8 %11, ptr align 8 %6, i64 8, i1 false), !tbaa.struct !276
  %17 = load i8, ptr %10, align 1, !tbaa !29, !range !23, !noundef !24
  %18 = trunc i8 %17 to i1
  %19 = getelementptr inbounds nuw %"class.net::QuicTime", ptr %11, i32 0, i32 0
  %20 = load i64, ptr %19, align 8
  call void @_ZN3net18QuicReceivedPacketC2EPKcmNS_8QuicTimeEbbib(ptr noundef nonnull align 8 dereferenceable(45) %14, ptr noundef %15, i64 noundef %16, i64 %20, i1 noundef zeroext %18, i1 noundef zeroext false, i32 noundef -1, i1 noundef zeroext false)
  ret void
}