; Function Attrs: mustprogress nofree norecurse nosync nounwind willreturn memory(argmem: write) uwtable
define void @_ZN3net18QuicReceivedPacketC2EPKcmNS_8QuicTimeEb(ptr noundef nonnull writeonly align 8 captures(none) dereferenceable(45) initializes((0, 25), (32, 45)) %0, ptr noundef %1, i64 noundef %2, i64 %3, i1 noundef zeroext %4) unnamed_addr #2 align 2 {
  %6 = zext i1 %4 to i8
  %7 = getelementptr inbounds nuw i8, ptr %0, i64 8
  store ptr %1, ptr %7, align 8, !tbaa !204
  %8 = getelementptr inbounds nuw i8, ptr %0, i64 16
  store i64 %2, ptr %8, align 8, !tbaa !206
  %9 = getelementptr inbounds nuw i8, ptr %0, i64 24
  store i8 %6, ptr %9, align 8, !tbaa !207
  store ptr getelementptr inbounds nuw inrange(-16, 16) (i8, ptr @_ZTVN3net18QuicReceivedPacketE, i64 16), ptr %0, align 8, !tbaa !39
  %10 = getelementptr inbounds nuw i8, ptr %0, i64 32
  store i64 %3, ptr %10, align 8, !tbaa !76
  %11 = getelementptr inbounds nuw i8, ptr %0, i64 40
  store i32 -1, ptr %11, align 8, !tbaa !215
  %12 = getelementptr inbounds nuw i8, ptr %0, i64 44
  store i8 0, ptr %12, align 4, !tbaa !218
  ret void
}